target datalayout = "e-m:e-p270:32:32-p271:32:32-p272:64:64-i64:64-i128:128-f80:128-n8:16:32:64-S128"
target triple = "x86_64-pc-linux-gnu"

%struct.h5tool_format_t = type { i8, ptr, ptr, ptr, ptr, ptr, ptr, ptr, ptr, ptr, ptr, ptr, ptr, ptr, ptr, ptr, ptr, ptr, i32, i32, i32, ptr, ptr, ptr, i32, ptr, ptr, ptr, ptr, ptr, ptr, ptr, ptr, ptr, ptr, ptr, ptr, ptr, ptr, ptr, ptr, i32, i64, ptr, ptr, ptr, ptr, ptr, i32, ptr, i32, i32, ptr, i32, ptr, ptr, ptr, ptr, i32, i32 }
%struct.dump_opt_t = type { i32, i32, i32, i32, i32, i32, i32, i32, i32, i32, i32, i32, i32, i32, i32, i32, i32 }
%struct.h5tools_context_t = type { i64, i64, i32, i32, [32 x i64], [32 x i64], i32, i64, i32, i64, i32, i32, [32 x i64], [32 x i64], i64, ptr, ptr, i32, i32 }

@h5tools_dataformat = external global %struct.h5tool_format_t, align 8
@dump_indent = external global i32, align 4
@rawoutstream = external global ptr, align 8
@dump_opts = external global %struct.dump_opt_t, align 4
@fp_format = external global ptr, align 8
@fp_lformat = external global ptr, align 8
@complex_format = external global ptr, align 8
@h5tools_nCols = external global i32, align 4

; Function Attrs: nounwind uwtable
define dso_local void @dump_data(i64 noundef %0, i32 noundef %1, ptr noundef %2, i32 noundef %3) #0 {
  %5 = alloca i64, align 8
  %6 = alloca i32, align 4
  %7 = alloca ptr, align 8
  %8 = alloca i32, align 4
  %9 = alloca %struct.h5tools_context_t, align 8
  %10 = alloca ptr, align 8
  %11 = alloca %struct.h5tool_format_t, align 8
  %12 = alloca i32, align 4
  store i64 %0, ptr %5, align 8, !tbaa !4
  store i32 %1, ptr %6, align 4, !tbaa !11
  store ptr %2, ptr %7, align 8, !tbaa !104
  store i32 %3, ptr %8, align 4, !tbaa !11
  call void @llvm.lifetime.start.p0(i64 1120, ptr %9) #10
  call void @llvm.lifetime.start.p0(i64 8, ptr %10) #10
  store ptr @h5tools_dataformat, ptr %10, align 8, !tbaa !8
  call void @llvm.lifetime.start.p0(i64 456, ptr %11) #10
  call void @llvm.lifetime.start.p0(i64 4, ptr %12) #10
  store i32 0, ptr %12, align 4, !tbaa !11
  %13 = load ptr, ptr %10, align 8, !tbaa !8
  call void @llvm.memcpy.p0.p0.i64(ptr align 8 %11, ptr align 8 %13, i64 456, i1 false), !tbaa.struct !33
  %14 = load ptr, ptr @fp_format, align 8, !tbaa !22
  %15 = icmp ne ptr %14, null
  br i1 %15, label %16, label %21

16:                                               ; preds = %4
  %17 = load ptr, ptr @fp_format, align 8, !tbaa !22
  %18 = getelementptr inbounds nuw %struct.h5tool_format_t, ptr %11, i32 0, i32 13
  store ptr %17, ptr %18, align 8, !tbaa !37
  %19 = load ptr, ptr @fp_format, align 8, !tbaa !22
  %20 = getelementptr inbounds nuw %struct.h5tool_format_t, ptr %11, i32 0, i32 12
  store ptr %19, ptr %20, align 8, !tbaa !39
  br label %21

21:                                               ; preds = %16, %4
  %22 = load ptr, ptr @fp_lformat, align 8, !tbaa !22
  %23 = icmp ne ptr %22, null
  br i1 %23, label %24, label %27

24:                                               ; preds = %21
  %25 = load ptr, ptr @fp_lformat, align 8, !tbaa !22
  %26 = getelementptr inbounds nuw %struct.h5tool_format_t, ptr %11, i32 0, i32 14
  store ptr %25, ptr %26, align 8, !tbaa !40
  br label %27

27:                                               ; preds = %24, %21
  %28 = load ptr, ptr @complex_format, align 8, !tbaa !22
  %29 = icmp ne ptr %28, null
  br i1 %29, label %30, label %35

30:                                               ; preds = %27
  %31 = load ptr, ptr @complex_format, align 8, !tbaa !22
  %32 = getelementptr inbounds nuw %struct.h5tool_format_t, ptr %11, i32 0, i32 16
  store ptr %31, ptr %32, align 8, !tbaa !41
  %33 = load ptr, ptr @complex_format, align 8, !tbaa !22
  %34 = getelementptr inbounds nuw %struct.h5tool_format_t, ptr %11, i32 0, i32 15
  store ptr %33, ptr %34, align 8, !tbaa !42
  br label %35

35:                                               ; preds = %30, %27
  %36 = load i32, ptr @h5tools_nCols, align 4, !tbaa !11
  %37 = icmp eq i32 %36, 0
  br i1 %37, label %38, label %41

38:                                               ; preds = %35
  %39 = getelementptr inbounds nuw %struct.h5tool_format_t, ptr %11, i32 0, i32 41
  store i32 65535, ptr %39, align 8, !tbaa !43
  %40 = getelementptr inbounds nuw %struct.h5tool_format_t, ptr %11, i32 0, i32 42
  store i64 1, ptr %40, align 8, !tbaa !44
  br label %44

41:                                               ; preds = %35
  %42 = load i32, ptr @h5tools_nCols, align 4, !tbaa !11
  %43 = getelementptr inbounds nuw %struct.h5tool_format_t, ptr %11, i32 0, i32 41
  store i32 %42, ptr %43, align 8, !tbaa !43
  br label %44

44:                                               ; preds = %41, %38
  %45 = load i32, ptr getelementptr inbounds nuw (%struct.dump_opt_t, ptr @dump_opts, i32 0, i32 10), align 4, !tbaa !45
  %46 = getelementptr inbounds nuw %struct.h5tool_format_t, ptr %11, i32 0, i32 59
  store i32 %45, ptr %46, align 4, !tbaa !46
  store ptr %11, ptr %10, align 8, !tbaa !8
  call void @llvm.memset.p0.i64(ptr align 8 %9, i8 0, i64 1120, i1 false)
  %47 = load i32, ptr @dump_indent, align 4, !tbaa !11
  %48 = udiv i32 %47, 3
  %49 = getelementptr inbounds nuw %struct.h5tools_context_t, ptr %9, i32 0, i32 10
  store i32 %48, ptr %49, align 8, !tbaa !13
  %50 = load i32, ptr @dump_indent, align 4, !tbaa !11
  %51 = zext i32 %50 to i64
  %52 = getelementptr inbounds nuw %struct.h5tools_context_t, ptr %9, i32 0, i32 0
  store i64 %51, ptr %52, align 8, !tbaa !17
  %53 = load ptr, ptr %7, align 8, !tbaa !104
  %54 = getelementptr inbounds nuw %struct.h5tools_context_t, ptr %9, i32 0, i32 16
  store ptr %53, ptr %54, align 8, !tbaa !106
  %55 = load i32, ptr %8, align 4, !tbaa !11
  %56 = getelementptr inbounds nuw %struct.h5tools_context_t, ptr %9, i32 0, i32 17
  store i32 %55, ptr %56, align 8, !tbaa !27
  %57 = load i32, ptr getelementptr inbounds nuw (%struct.dump_opt_t, ptr @dump_opts, i32 0, i32 4), align 4, !tbaa !28
  %58 = getelementptr inbounds nuw %struct.h5tools_context_t, ptr %9, i32 0, i32 18
  store i32 %57, ptr %58, align 4, !tbaa !29
  %59 = load i32, ptr %6, align 4, !tbaa !11
  %60 = icmp eq i32 %59, 1
  br i1 %60, label %61, label %62

61:                                               ; preds = %44
  store i32 1, ptr %12, align 4, !tbaa !11
  br label %62

62:                                               ; preds = %61, %44
  %63 = load ptr, ptr @rawoutstream, align 8, !tbaa !20
  %64 = load ptr, ptr %10, align 8, !tbaa !8
  %65 = load i64, ptr %5, align 8, !tbaa !4
  %66 = load i32, ptr %12, align 4, !tbaa !11
  call void @h5tools_dump_data(ptr noundef %63, ptr noundef %64, ptr noundef %9, i64 noundef %65, i32 noundef %66)
  call void @llvm.lifetime.end.p0(i64 4, ptr %12) #10
  call void @llvm.lifetime.end.p0(i64 456, ptr %11) #10
  call void @llvm.lifetime.end.p0(i64 8, ptr %10) #10
  call void @llvm.lifetime.end.p0(i64 1120, ptr %9) #10
  ret void
}