; Function Attrs: nounwind uwtable
define dso_local void @dump_data(i64 noundef %0, i32 noundef %1, ptr noundef %2, i32 noundef %3) local_unnamed_addr #0 {
  %5 = alloca %struct.h5tools_context_t, align 8
  %6 = alloca %struct.h5tool_format_t, align 8
  call void @llvm.lifetime.start.p0(i64 1120, ptr nonnull %5) #15
  call void @llvm.lifetime.start.p0(i64 456, ptr nonnull %6) #15
  call void @llvm.memcpy.p0.p0.i64(ptr noundef nonnull align 8 dereferenceable(456) %6, ptr noundef nonnull align 8 dereferenceable(456) @h5tools_dataformat, i64 456, i1 false), !tbaa.struct !27
  %7 = load ptr, ptr @fp_format, align 8, !tbaa !30
  %.not = icmp eq ptr %7, null
  br i1 %.not, label %11, label %8

8:                                                ; preds = %4
  %9 = getelementptr inbounds nuw i8, ptr %6, i64 104
  store ptr %7, ptr %9, align 8, !tbaa !34
  %10 = getelementptr inbounds nuw i8, ptr %6, i64 96
  store ptr %7, ptr %10, align 8, !tbaa !36
  br label %11

11:                                               ; preds = %8, %4
  %12 = load ptr, ptr @fp_lformat, align 8, !tbaa !30
  %.not10 = icmp eq ptr %12, null
  br i1 %.not10, label %15, label %13

13:                                               ; preds = %11
  %14 = getelementptr inbounds nuw i8, ptr %6, i64 112
  store ptr %12, ptr %14, align 8, !tbaa !37
  br label %15

15:                                               ; preds = %13, %11
  %16 = load ptr, ptr @complex_format, align 8, !tbaa !30
  %.not11 = icmp eq ptr %16, null
  br i1 %.not11, label %20, label %17

17:                                               ; preds = %15
  %18 = getelementptr inbounds nuw i8, ptr %6, i64 128
  store ptr %16, ptr %18, align 8, !tbaa !38
  %19 = getelementptr inbounds nuw i8, ptr %6, i64 120
  store ptr %16, ptr %19, align 8, !tbaa !39
  br label %20

20:                                               ; preds = %17, %15
  %21 = load i32, ptr @h5tools_nCols, align 4, !tbaa !4
  %22 = icmp eq i32 %21, 0
  br i1 %22, label %23, label %25

23:                                               ; preds = %20
  %24 = getelementptr inbounds nuw i8, ptr %6, i64 328
  store i64 1, ptr %24, align 8, !tbaa !40
  br label %25

25:                                               ; preds = %20, %23
  %.sink = phi i32 [ 65535, %23 ], [ %21, %20 ]
  %26 = getelementptr inbounds nuw i8, ptr %6, i64 320
  store i32 %.sink, ptr %26, align 8, !tbaa !41
  %27 = load i32, ptr getelementptr inbounds nuw (i8, ptr @dump_opts, i64 40), align 4, !tbaa !42
  %28 = getelementptr inbounds nuw i8, ptr %6, i64 452
  store i32 %27, ptr %28, align 4, !tbaa !43
  %29 = getelementptr inbounds nuw i8, ptr %5, i64 8
  call void @llvm.memset.p0.i64(ptr noundef nonnull align 8 dereferenceable(1120) %29, i8 0, i64 1096, i1 false)
  %30 = load i32, ptr @dump_indent, align 4, !tbaa !4
  %31 = udiv i32 %30, 3
  %32 = getelementptr inbounds nuw i8, ptr %5, i64 568
  store i32 %31, ptr %32, align 8, !tbaa !8
  %33 = zext i32 %30 to i64
  store i64 %33, ptr %5, align 8, !tbaa !14
  %34 = getelementptr inbounds nuw i8, ptr %5, i64 1104
  store ptr %2, ptr %34, align 8, !tbaa !108
  %35 = getelementptr inbounds nuw i8, ptr %5, i64 1112
  store i32 %3, ptr %35, align 8, !tbaa !21
  %36 = load i32, ptr getelementptr inbounds nuw (i8, ptr @dump_opts, i64 16), align 4, !tbaa !22
  %37 = getelementptr inbounds nuw i8, ptr %5, i64 1116
  store i32 %36, ptr %37, align 4, !tbaa !23
  %38 = icmp eq i32 %1, 1
  %spec.select = zext i1 %38 to i32
  %39 = load ptr, ptr @rawoutstream, align 8, !tbaa !17
  call void @h5tools_dump_data(ptr noundef %39, ptr noundef nonnull %6, ptr noundef nonnull %5, i64 noundef %0, i32 noundef %spec.select) #15
  call void @llvm.lifetime.end.p0(i64 456, ptr nonnull %6) #15
  call void @llvm.lifetime.end.p0(i64 1120, ptr nonnull %5) #15
  ret void
}